; Function Attrs: mustprogress nofree norecurse nosync nounwind willreturn memory(argmem: readwrite) uwtable
define hidden void @_ZNK10__cxxabiv117__class_type_info29process_static_type_above_dstEPNS_19__dynamic_cast_infoEPKvS4_i(ptr noundef nonnull readnone align 8 captures(none) dereferenceable(16) %0, ptr noundef captures(none) initializes((77, 78)) %1, ptr noundef %2, ptr noundef readnone captures(address) %3, i32 noundef %4) local_unnamed_addr #11 align 2 {
  %6 = getelementptr inbounds nuw i8, ptr %1, i64 77
  store i8 1, ptr %6, align 1, !tbaa !30
  %7 = getelementptr inbounds nuw i8, ptr %1, i64 8
  %8 = load ptr, ptr %7, align 8, !tbaa !17
  %9 = icmp eq ptr %3, %8
  br i1 %9, label %10, label %40

10:                                               ; preds = %5
  %11 = getelementptr inbounds nuw i8, ptr %1, i64 76
  store i8 1, ptr %11, align 4, !tbaa !29
  %12 = getelementptr inbounds nuw i8, ptr %1, i64 32
  %13 = load ptr, ptr %12, align 8, !tbaa !26
  %14 = icmp eq ptr %13, null
  br i1 %14, label %15, label %22

15:                                               ; preds = %10
  store ptr %2, ptr %12, align 8, !tbaa !26
  %16 = getelementptr inbounds nuw i8, ptr %1, i64 48
  store i32 %4, ptr %16, align 8, !tbaa !25
  %17 = getelementptr inbounds nuw i8, ptr %1, i64 60
  store i32 1, ptr %17, align 4, !tbaa !32
  %18 = getelementptr inbounds nuw i8, ptr %1, i64 72
  %19 = load i32, ptr %18, align 8, !tbaa !22
  %20 = icmp eq i32 %19, 1
  %21 = icmp eq i32 %4, 1
  %or.cond = and i1 %21, %20
  br i1 %or.cond, label %.sink.split, label %40

22:                                               ; preds = %10
  %23 = icmp eq ptr %13, %2
  br i1 %23, label %24, label %35

24:                                               ; preds = %22
  %25 = getelementptr inbounds nuw i8, ptr %1, i64 48
  %26 = load i32, ptr %25, align 8, !tbaa !25
  %27 = icmp eq i32 %26, 2
  br i1 %27, label %28, label %29

28:                                               ; preds = %24
  store i32 %4, ptr %25, align 8, !tbaa !25
  br label %29

29:                                               ; preds = %28, %24
  %30 = phi i32 [ %4, %28 ], [ %26, %24 ]
  %31 = getelementptr inbounds nuw i8, ptr %1, i64 72
  %32 = load i32, ptr %31, align 8, !tbaa !22
  %33 = icmp eq i32 %32, 1
  %34 = icmp eq i32 %30, 1
  %or.cond22 = and i1 %33, %34
  br i1 %or.cond22, label %.sink.split, label %40

35:                                               ; preds = %22
  %36 = getelementptr inbounds nuw i8, ptr %1, i64 60
  %37 = load i32, ptr %36, align 4, !tbaa !32
  %38 = add nsw i32 %37, 1
  store i32 %38, ptr %36, align 4, !tbaa !32
  br label %.sink.split

.sink.split:                                      ; preds = %29, %15, %35
  %39 = getelementptr inbounds nuw i8, ptr %1, i64 78
  store i8 1, ptr %39, align 2, !tbaa !31
  br label %40

40:                                               ; preds = %.sink.split, %15, %29, %5
  ret void
}